target datalayout = "e-m:e-p270:32:32-p271:32:32-p272:64:64-i64:64-i128:128-f80:128-n8:16:32:64-S128"
target triple = "x86_64-pc-linux-gnu"

%"struct.pxrInternal_v0_24__pxrReserved__::HgiRasterizationState" = type { i32, float, i32, i32, i8, i8, %"class.pxrInternal_v0_24__pxrReserved__::GfVec2f", i8, i64 }
%"class.pxrInternal_v0_24__pxrReserved__::GfVec2f" = type { [2 x float] }

; Function Attrs: mustprogress nounwind uwtable
define linkonce_odr void @_ZN32pxrInternal_v0_24__pxrReserved__7GfVec2fC2Eff(ptr noundef nonnull align 4 dereferenceable(8) %0, float noundef %1, float noundef %2) unnamed_addr #0 comdat align 2 {
  %4 = alloca ptr, align 8
  %5 = alloca float, align 4
  %6 = alloca float, align 4
  store ptr %0, ptr %4, align 8
  store float %1, ptr %5, align 4
  store float %2, ptr %6, align 4
  %7 = load ptr, ptr %4, align 8
  %8 = getelementptr inbounds nuw %"class.pxrInternal_v0_24__pxrReserved__::GfVec2f", ptr %7, i32 0, i32 0
  %9 = load float, ptr %5, align 4
  store float %9, ptr %8, align 4
  %10 = getelementptr inbounds float, ptr %8, i64 1
  %11 = load float, ptr %6, align 4
  store float %11, ptr %10, align 4
  ret void
}

; Function Attrs: mustprogress uwtable
define void @_ZN32pxrInternal_v0_24__pxrReserved__21HgiRasterizationStateC2Ev(ptr noundef nonnull align 8 dereferenceable(40) %0) unnamed_addr #1 align 2 {
  %2 = alloca ptr, align 8
  store ptr %0, ptr %2, align 8
  %3 = load ptr, ptr %2, align 8
  %4 = getelementptr inbounds nuw %"struct.pxrInternal_v0_24__pxrReserved__::HgiRasterizationState", ptr %3, i32 0, i32 0
  store i32 0, ptr %4, align 8
  %5 = getelementptr inbounds nuw %"struct.pxrInternal_v0_24__pxrReserved__::HgiRasterizationState", ptr %3, i32 0, i32 1
  store float 1.000000e+00, ptr %5, align 4
  %6 = getelementptr inbounds nuw %"struct.pxrInternal_v0_24__pxrReserved__::HgiRasterizationState", ptr %3, i32 0, i32 2
  store i32 2, ptr %6, align 8
  %7 = getelementptr inbounds nuw %"struct.pxrInternal_v0_24__pxrReserved__::HgiRasterizationState", ptr %3, i32 0, i32 3
  store i32 1, ptr %7, align 4
  %8 = getelementptr inbounds nuw %"struct.pxrInternal_v0_24__pxrReserved__::HgiRasterizationState", ptr %3, i32 0, i32 4
  store i8 1, ptr %8, align 8
  %9 = getelementptr inbounds nuw %"struct.pxrInternal_v0_24__pxrReserved__::HgiRasterizationState", ptr %3, i32 0, i32 5
  store i8 0, ptr %9, align 1
  %10 = getelementptr inbounds nuw %"struct.pxrInternal_v0_24__pxrReserved__::HgiRasterizationState", ptr %3, i32 0, i32 6
  call void @_ZN32pxrInternal_v0_24__pxrReserved__7GfVec2fC2Eff(ptr noundef nonnull align 4 dereferenceable(8) %10, float noundef 0.000000e+00, float noundef 1.000000e+00)
  %11 = getelementptr inbounds nuw %"struct.pxrInternal_v0_24__pxrReserved__::HgiRasterizationState", ptr %3, i32 0, i32 7
  store i8 0, ptr %11, align 4
  %12 = getelementptr inbounds nuw %"struct.pxrInternal_v0_24__pxrReserved__::HgiRasterizationState", ptr %3, i32 0, i32 8
  store i64 0, ptr %12, align 8
  ret void
}