; Function Attrs: mustprogress nofree norecurse nosync nounwind willreturn memory(argmem: write) uwtable
define void @_ZN32pxrInternal_v0_24__pxrReserved__21HgiRasterizationStateC2Ev(ptr nocapture noundef nonnull writeonly align 8 dereferenceable(40) %0) unnamed_addr #0 align 2 {
  store i32 0, ptr %0, align 8
  %2 = getelementptr inbounds nuw i8, ptr %0, i64 4
  store float 1.000000e+00, ptr %2, align 4
  %3 = getelementptr inbounds nuw i8, ptr %0, i64 8
  store i32 2, ptr %3, align 8
  %4 = getelementptr inbounds nuw i8, ptr %0, i64 12
  store i32 1, ptr %4, align 4
  %5 = getelementptr inbounds nuw i8, ptr %0, i64 16
  store i8 1, ptr %5, align 8
  %6 = getelementptr inbounds nuw i8, ptr %0, i64 17
  store i8 0, ptr %6, align 1
  %7 = getelementptr inbounds nuw i8, ptr %0, i64 20
  store float 0.000000e+00, ptr %7, align 4
  %8 = getelementptr inbounds i8, ptr %0, i64 24
  store float 1.000000e+00, ptr %8, align 8
  %9 = getelementptr inbounds nuw i8, ptr %0, i64 28
  store i8 0, ptr %9, align 4
  %10 = getelementptr inbounds nuw i8, ptr %0, i64 32
  store i64 0, ptr %10, align 8
  ret void
}